target datalayout = "e-m:e-p270:32:32-p271:32:32-p272:64:64-i64:64-i128:128-f80:128-n8:16:32:64-S128"
target triple = "x86_64-pc-linux-gnu"

%"class.llvm::StringRef" = type { ptr, i64 }
%"class.llvm::Triple" = type { %"class.std::__cxx11::basic_string", i32, i32, i32, i32, i32, i32 }
%"class.std::__cxx11::basic_string" = type { %"struct.std::__cxx11::basic_string<char>::_Alloc_hider", i64, %union.anon }
%"struct.std::__cxx11::basic_string<char>::_Alloc_hider" = type { ptr }
%union.anon = type { i64, [8 x i8] }
%"class.llvm::VersionTuple" = type { i64, i64 }
%"class.std::optional.240" = type { %"struct.std::_Optional_base.241" }
%"struct.std::_Optional_base.241" = type { %"struct.std::_Optional_payload.243" }
%"struct.std::_Optional_payload.243" = type { %"struct.std::_Optional_payload.base.247", [7 x i8] }
%"struct.std::_Optional_payload.base.247" = type { %"struct.std::_Optional_payload_base.base.246" }
%"struct.std::_Optional_payload_base.base.246" = type <{ %"union.std::_Optional_payload_base<llvm::Triple>::_Storage", i8 }>
%"union.std::_Optional_payload_base<llvm::Triple>::_Storage" = type { %"class.llvm::Triple" }
%"struct.std::_Optional_base.299" = type { %"struct.std::_Optional_payload.301" }
%"struct.std::_Optional_payload.301" = type { %"struct.std::_Optional_payload.base.305", [7 x i8] }
%"struct.std::_Optional_payload.base.305" = type { %"struct.std::_Optional_payload_base.base.304" }
%"struct.std::_Optional_payload_base.base.304" = type { %"union.std::_Optional_payload_base<(anonymous namespace)::DarwinPlatform>::_Storage", i8 }
%"union.std::_Optional_payload_base<(anonymous namespace)::DarwinPlatform>::_Storage" = type { %"struct.(anonymous namespace)::DarwinPlatform" }
%"struct.(anonymous namespace)::DarwinPlatform" = type <{ i32, i32, i32, %"class.llvm::VersionTuple", [4 x i8], %"class.std::__cxx11::basic_string", i8, i8, [6 x i8], ptr, %"class.llvm::StringRef", %"class.std::optional.240" }>
%"struct.std::_Optional_payload_base.245" = type <{ %"union.std::_Optional_payload_base<llvm::Triple>::_Storage", i8, [7 x i8] }>
%"struct.std::_Optional_payload_base.303" = type { %"union.std::_Optional_payload_base<(anonymous namespace)::DarwinPlatform>::_Storage", i8, [7 x i8] }

; Function Attrs: mustprogress nounwind uwtable
define linkonce_odr hidden void @_ZN4llvm6TripleC2EOS0_(ptr noundef nonnull align 8 dereferenceable(56) %0, ptr noundef nonnull align 8 dereferenceable(56) %1) unnamed_addr #0 comdat align 2 {
  %3 = alloca ptr, align 8
  %4 = alloca ptr, align 8
  store ptr %0, ptr %3, align 8
  store ptr %1, ptr %4, align 8
  %5 = load ptr, ptr %3, align 8
  %6 = getelementptr inbounds nuw %"class.llvm::Triple", ptr %5, i32 0, i32 0
  %7 = load ptr, ptr %4, align 8
  %8 = getelementptr inbounds nuw %"class.llvm::Triple", ptr %7, i32 0, i32 0
  call void @_ZNSt7__cxx1112basic_stringIcSt11char_traitsIcESaIcEEC1EOS4_(ptr noundef nonnull align 8 dereferenceable(32) %6, ptr noundef nonnull align 8 dereferenceable(32) %8) #10
  %9 = getelementptr inbounds nuw %"class.llvm::Triple", ptr %5, i32 0, i32 1
  %10 = load ptr, ptr %4, align 8
  %11 = getelementptr inbounds nuw %"class.llvm::Triple", ptr %10, i32 0, i32 1
  call void @llvm.memcpy.p0.p0.i64(ptr align 8 %9, ptr align 8 %11, i64 24, i1 false)
  ret void
}

; Function Attrs: mustprogress nounwind uwtable
define linkonce_odr void @_ZSt10_ConstructIN4llvm6TripleEJS1_EEvPT_DpOT0_(ptr noundef %0, ptr noundef nonnull align 8 dereferenceable(56) %1) #0 comdat {
  %3 = alloca ptr, align 8
  %4 = alloca ptr, align 8
  store ptr %0, ptr %3, align 8
  store ptr %1, ptr %4, align 8
  %5 = load ptr, ptr %3, align 8
  %6 = load ptr, ptr %4, align 8
  call void @_ZN4llvm6TripleC2EOS0_(ptr noundef nonnull align 8 dereferenceable(56) %5, ptr noundef nonnull align 8 dereferenceable(56) %6) #10
  ret void
}

; Function Attrs: mustprogress nounwind uwtable
define linkonce_odr hidden void @_ZNSt22_Optional_payload_baseIN4llvm6TripleEE12_M_constructIJS1_EEEvDpOT_(ptr noundef nonnull align 8 dereferenceable(57) %0, ptr noundef nonnull align 8 dereferenceable(56) %1) #0 comdat align 2 {
  %3 = alloca ptr, align 8
  %4 = alloca ptr, align 8
  store ptr %0, ptr %3, align 8
  store ptr %1, ptr %4, align 8
  %5 = load ptr, ptr %3, align 8
  %6 = getelementptr inbounds nuw %"struct.std::_Optional_payload_base.245", ptr %5, i32 0, i32 0
  %7 = load ptr, ptr %4, align 8
  call void @_ZSt10_ConstructIN4llvm6TripleEJS1_EEvPT_DpOT0_(ptr noundef %6, ptr noundef nonnull align 8 dereferenceable(56) %7)
  %8 = getelementptr inbounds nuw %"struct.std::_Optional_payload_base.245", ptr %5, i32 0, i32 1
  store i8 1, ptr %8, align 8
  ret void
}

; Function Attrs: mustprogress nounwind uwtable
define linkonce_odr hidden noundef nonnull align 8 dereferenceable(56) ptr @_ZNSt22_Optional_payload_baseIN4llvm6TripleEE6_M_getEv(ptr noundef nonnull align 8 dereferenceable(57) %0) #0 comdat align 2 {
  %2 = alloca ptr, align 8
  store ptr %0, ptr %2, align 8
  %3 = load ptr, ptr %2, align 8
  %4 = getelementptr inbounds nuw %"struct.std::_Optional_payload_base.245", ptr %3, i32 0, i32 0
  ret ptr %4
}

; Function Attrs: mustprogress nounwind uwtable
define linkonce_odr hidden void @_ZNSt22_Optional_payload_baseIN4llvm6TripleEE8_StorageIS1_Lb0EEC2Ev(ptr noundef nonnull align 8 dereferenceable(56) %0) unnamed_addr #0 comdat align 2 {
  %2 = alloca ptr, align 8
  store ptr %0, ptr %2, align 8
  ret void
}

; Function Attrs: mustprogress nounwind uwtable
define linkonce_odr hidden void @_ZNSt22_Optional_payload_baseIN4llvm6TripleEEC2EbOS2_(ptr noundef nonnull align 8 dereferenceable(57) %0, i1 noundef zeroext %1, ptr noundef nonnull align 8 dereferenceable(57) %2) unnamed_addr #0 comdat align 2 {
  %4 = alloca ptr, align 8
  %5 = alloca i8, align 1
  %6 = alloca ptr, align 8
  store ptr %0, ptr %4, align 8
  %7 = zext i1 %1 to i8
  store i8 %7, ptr %5, align 1
  store ptr %2, ptr %6, align 8
  %8 = load ptr, ptr %4, align 8
  %9 = getelementptr inbounds nuw %"struct.std::_Optional_payload_base.245", ptr %8, i32 0, i32 0
  call void @_ZNSt22_Optional_payload_baseIN4llvm6TripleEE8_StorageIS1_Lb0EEC2Ev(ptr noundef nonnull align 8 dereferenceable(56) %9) #10
  %10 = getelementptr inbounds nuw %"struct.std::_Optional_payload_base.245", ptr %8, i32 0, i32 1
  store i8 0, ptr %10, align 8
  %11 = load ptr, ptr %6, align 8
  %12 = getelementptr inbounds nuw %"struct.std::_Optional_payload_base.245", ptr %11, i32 0, i32 1
  %13 = load i8, ptr %12, align 8
  %14 = trunc i8 %13 to i1
  br i1 %14, label %15, label %18

15:                                               ; preds = %3
  %16 = load ptr, ptr %6, align 8
  %17 = call noundef nonnull align 8 dereferenceable(56) ptr @_ZNSt22_Optional_payload_baseIN4llvm6TripleEE6_M_getEv(ptr noundef nonnull align 8 dereferenceable(57) %16) #10
  call void @_ZNSt22_Optional_payload_baseIN4llvm6TripleEE12_M_constructIJS1_EEEvDpOT_(ptr noundef nonnull align 8 dereferenceable(57) %8, ptr noundef nonnull align 8 dereferenceable(56) %17) #10
  br label %18

18:                                               ; preds = %15, %3
  ret void
}

; Function Attrs: mustprogress nounwind uwtable
define linkonce_odr hidden void @_ZNSt17_Optional_payloadIN4llvm6TripleELb1ELb0ELb0EECI2St22_Optional_payload_baseIS1_EEbOS3_IS1_E(ptr noundef nonnull align 8 dereferenceable(57) %0, i1 noundef zeroext %1, ptr noundef nonnull align 8 dereferenceable(57) %2) unnamed_addr #0 comdat align 2 {
  %4 = alloca ptr, align 8
  %5 = alloca i8, align 1
  %6 = alloca ptr, align 8
  store ptr %0, ptr %4, align 8
  %7 = zext i1 %1 to i8
  store i8 %7, ptr %5, align 1
  store ptr %2, ptr %6, align 8
  %8 = load ptr, ptr %4, align 8
  %9 = load i8, ptr %5, align 1
  %10 = trunc i8 %9 to i1
  %11 = load ptr, ptr %6, align 8
  call void @_ZNSt22_Optional_payload_baseIN4llvm6TripleEEC2EbOS2_(ptr noundef nonnull align 8 dereferenceable(57) %8, i1 noundef zeroext %10, ptr noundef nonnull align 8 dereferenceable(57) %11)
  ret void
}

; Function Attrs: mustprogress nounwind uwtable
define linkonce_odr hidden void @_ZNSt17_Optional_payloadIN4llvm6TripleELb0ELb0ELb0EECI2St22_Optional_payload_baseIS1_EEbOS3_IS1_E(ptr noundef nonnull align 8 dereferenceable(57) %0, i1 noundef zeroext %1, ptr noundef nonnull align 8 dereferenceable(57) %2) unnamed_addr #0 comdat align 2 {
  %4 = alloca ptr, align 8
  %5 = alloca i8, align 1
  %6 = alloca ptr, align 8
  store ptr %0, ptr %4, align 8
  %7 = zext i1 %1 to i8
  store i8 %7, ptr %5, align 1
  store ptr %2, ptr %6, align 8
  %8 = load ptr, ptr %4, align 8
  %9 = load i8, ptr %5, align 1
  %10 = trunc i8 %9 to i1
  %11 = load ptr, ptr %6, align 8
  call void @_ZNSt17_Optional_payloadIN4llvm6TripleELb1ELb0ELb0EECI2St22_Optional_payload_baseIS1_EEbOS3_IS1_E(ptr noundef nonnull align 8 dereferenceable(57) %8, i1 noundef zeroext %10, ptr noundef nonnull align 8 dereferenceable(57) %11)
  ret void
}

; Function Attrs: mustprogress nounwind uwtable
define linkonce_odr hidden void @_ZNSt14_Optional_baseIN4llvm6TripleELb0ELb0EEC2EOS2_(ptr noundef nonnull align 8 dereferenceable(64) %0, ptr noundef nonnull align 8 dereferenceable(64) %1) unnamed_addr #0 comdat align 2 {
  %3 = alloca ptr, align 8
  %4 = alloca ptr, align 8
  store ptr %0, ptr %3, align 8
  store ptr %1, ptr %4, align 8
  %5 = load ptr, ptr %3, align 8
  %6 = getelementptr inbounds nuw %"struct.std::_Optional_base.241", ptr %5, i32 0, i32 0
  %7 = load ptr, ptr %4, align 8
  %8 = getelementptr inbounds nuw %"struct.std::_Optional_base.241", ptr %7, i32 0, i32 0
  %9 = getelementptr inbounds nuw %"struct.std::_Optional_payload_base.245", ptr %8, i32 0, i32 1
  %10 = load i8, ptr %9, align 8
  %11 = trunc i8 %10 to i1
  %12 = load ptr, ptr %4, align 8
  %13 = getelementptr inbounds nuw %"struct.std::_Optional_base.241", ptr %12, i32 0, i32 0
  call void @_ZNSt17_Optional_payloadIN4llvm6TripleELb0ELb0ELb0EECI2St22_Optional_payload_baseIS1_EEbOS3_IS1_E(ptr noundef nonnull align 8 dereferenceable(57) %6, i1 noundef zeroext %11, ptr noundef nonnull align 8 dereferenceable(57) %13)
  ret void
}

; Function Attrs: mustprogress nounwind uwtable
define linkonce_odr hidden void @_ZNSt8optionalIN4llvm6TripleEEC2EOS2_(ptr noundef nonnull align 8 dereferenceable(64) %0, ptr noundef nonnull align 8 dereferenceable(64) %1) unnamed_addr #0 comdat align 2 {
  %3 = alloca ptr, align 8
  %4 = alloca ptr, align 8
  store ptr %0, ptr %3, align 8
  store ptr %1, ptr %4, align 8
  %5 = load ptr, ptr %3, align 8
  %6 = load ptr, ptr %4, align 8
  call void @_ZNSt14_Optional_baseIN4llvm6TripleELb0ELb0EEC2EOS2_(ptr noundef nonnull align 8 dereferenceable(64) %5, ptr noundef nonnull align 8 dereferenceable(64) %6) #10
  ret void
}

; Function Attrs: mustprogress nounwind uwtable
define internal void @_ZN12_GLOBAL__N_114DarwinPlatformC2EOS0_(ptr noundef nonnull align 8 dereferenceable(160) %0, ptr noundef nonnull align 8 dereferenceable(160) %1) unnamed_addr #0 align 2 {
  %3 = alloca ptr, align 8
  %4 = alloca ptr, align 8
  store ptr %0, ptr %3, align 8
  store ptr %1, ptr %4, align 8
  %5 = load ptr, ptr %3, align 8
  %6 = getelementptr inbounds nuw %"struct.(anonymous namespace)::DarwinPlatform", ptr %5, i32 0, i32 0
  %7 = load ptr, ptr %4, align 8
  %8 = getelementptr inbounds nuw %"struct.(anonymous namespace)::DarwinPlatform", ptr %7, i32 0, i32 0
  call void @llvm.memcpy.p0.p0.i64(ptr align 8 %6, ptr align 8 %8, i64 28, i1 false)
  %9 = getelementptr inbounds nuw %"struct.(anonymous namespace)::DarwinPlatform", ptr %5, i32 0, i32 5
  %10 = load ptr, ptr %4, align 8
  %11 = getelementptr inbounds nuw %"struct.(anonymous namespace)::DarwinPlatform", ptr %10, i32 0, i32 5
  call void @_ZNSt7__cxx1112basic_stringIcSt11char_traitsIcESaIcEEC1EOS4_(ptr noundef nonnull align 8 dereferenceable(32) %9, ptr noundef nonnull align 8 dereferenceable(32) %11) #10
  %12 = getelementptr inbounds nuw %"struct.(anonymous namespace)::DarwinPlatform", ptr %5, i32 0, i32 6
  %13 = load ptr, ptr %4, align 8
  %14 = getelementptr inbounds nuw %"struct.(anonymous namespace)::DarwinPlatform", ptr %13, i32 0, i32 6
  call void @llvm.memcpy.p0.p0.i64(ptr align 8 %12, ptr align 8 %14, i64 32, i1 false)
  %15 = getelementptr inbounds nuw %"struct.(anonymous namespace)::DarwinPlatform", ptr %5, i32 0, i32 11
  %16 = load ptr, ptr %4, align 8
  %17 = getelementptr inbounds nuw %"struct.(anonymous namespace)::DarwinPlatform", ptr %16, i32 0, i32 11
  call void @_ZNSt8optionalIN4llvm6TripleEEC2EOS2_(ptr noundef nonnull align 8 dereferenceable(64) %15, ptr noundef nonnull align 8 dereferenceable(64) %17) #10
  ret void
}

; Function Attrs: mustprogress nounwind uwtable
define internal void @_ZNSt22_Optional_payload_baseIN12_GLOBAL__N_114DarwinPlatformEE8_StorageIS1_Lb0EEC2IJS1_EEESt10in_place_tDpOT_(ptr noundef nonnull align 8 dereferenceable(160) %0, ptr noundef nonnull align 8 dereferenceable(160) %1) unnamed_addr #0 align 2 {
  %3 = alloca ptr, align 8
  %4 = alloca ptr, align 8
  store ptr %0, ptr %3, align 8
  store ptr %1, ptr %4, align 8
  %5 = load ptr, ptr %3, align 8
  %6 = load ptr, ptr %4, align 8
  call void @_ZN12_GLOBAL__N_114DarwinPlatformC2EOS0_(ptr noundef nonnull align 8 dereferenceable(160) %5, ptr noundef nonnull align 8 dereferenceable(160) %6) #10
  ret void
}

; Function Attrs: mustprogress nounwind uwtable
define internal void @_ZNSt22_Optional_payload_baseIN12_GLOBAL__N_114DarwinPlatformEEC2IJS1_EEESt10in_place_tDpOT_(ptr noundef nonnull align 8 dereferenceable(161) %0, ptr noundef nonnull align 8 dereferenceable(160) %1) unnamed_addr #0 align 2 {
  %3 = alloca ptr, align 8
  %4 = alloca ptr, align 8
  store ptr %0, ptr %3, align 8
  store ptr %1, ptr %4, align 8
  %5 = load ptr, ptr %3, align 8
  %6 = getelementptr inbounds nuw %"struct.std::_Optional_payload_base.303", ptr %5, i32 0, i32 0
  %7 = load ptr, ptr %4, align 8
  call void @_ZNSt22_Optional_payload_baseIN12_GLOBAL__N_114DarwinPlatformEE8_StorageIS1_Lb0EEC2IJS1_EEESt10in_place_tDpOT_(ptr noundef nonnull align 8 dereferenceable(160) %6, ptr noundef nonnull align 8 dereferenceable(160) %7)
  %8 = getelementptr inbounds nuw %"struct.std::_Optional_payload_base.303", ptr %5, i32 0, i32 1
  store i8 1, ptr %8, align 8
  ret void
}

; Function Attrs: mustprogress nounwind uwtable
define internal void @_ZNSt17_Optional_payloadIN12_GLOBAL__N_114DarwinPlatformELb1ELb0ELb0EECI2St22_Optional_payload_baseIS1_EIJS1_EEESt10in_place_tDpOT_(ptr noundef nonnull align 8 dereferenceable(161) %0, ptr noundef nonnull align 8 dereferenceable(160) %1) unnamed_addr #0 align 2 {
  %3 = alloca ptr, align 8
  %4 = alloca ptr, align 8
  store ptr %0, ptr %3, align 8
  store ptr %1, ptr %4, align 8
  %5 = load ptr, ptr %3, align 8
  %6 = load ptr, ptr %4, align 8
  call void @_ZNSt22_Optional_payload_baseIN12_GLOBAL__N_114DarwinPlatformEEC2IJS1_EEESt10in_place_tDpOT_(ptr noundef nonnull align 8 dereferenceable(161) %5, ptr noundef nonnull align 8 dereferenceable(160) %6)
  ret void
}

; Function Attrs: mustprogress nounwind uwtable
define internal void @_ZNSt17_Optional_payloadIN12_GLOBAL__N_114DarwinPlatformELb0ELb0ELb0EECI2St22_Optional_payload_baseIS1_EIJS1_EEESt10in_place_tDpOT_(ptr noundef nonnull align 8 dereferenceable(161) %0, ptr noundef nonnull align 8 dereferenceable(160) %1) unnamed_addr #0 align 2 {
  %3 = alloca ptr, align 8
  %4 = alloca ptr, align 8
  store ptr %0, ptr %3, align 8
  store ptr %1, ptr %4, align 8
  %5 = load ptr, ptr %3, align 8
  %6 = load ptr, ptr %4, align 8
  call void @_ZNSt17_Optional_payloadIN12_GLOBAL__N_114DarwinPlatformELb1ELb0ELb0EECI2St22_Optional_payload_baseIS1_EIJS1_EEESt10in_place_tDpOT_(ptr noundef nonnull align 8 dereferenceable(161) %5, ptr noundef nonnull align 8 dereferenceable(160) %6)
  ret void
}

; Function Attrs: mustprogress nounwind uwtable
define internal void @_ZNSt14_Optional_baseIN12_GLOBAL__N_114DarwinPlatformELb0ELb0EEC2IJS1_ETnNSt9enable_ifIX18is_constructible_vIS1_DpT_EEbE4typeELb0EEESt10in_place_tDpOS5_(ptr noundef nonnull align 8 dereferenceable(168) %0, ptr noundef nonnull align 8 dereferenceable(160) %1) unnamed_addr #0 align 2 {
  %3 = alloca ptr, align 8
  %4 = alloca ptr, align 8
  store ptr %0, ptr %3, align 8
  store ptr %1, ptr %4, align 8
  %5 = load ptr, ptr %3, align 8
  %6 = getelementptr inbounds nuw %"struct.std::_Optional_base.299", ptr %5, i32 0, i32 0
  %7 = load ptr, ptr %4, align 8
  call void @_ZNSt17_Optional_payloadIN12_GLOBAL__N_114DarwinPlatformELb0ELb0ELb0EECI2St22_Optional_payload_baseIS1_EIJS1_EEESt10in_place_tDpOT_(ptr noundef nonnull align 8 dereferenceable(161) %6, ptr noundef nonnull align 8 dereferenceable(160) %7)
  ret void
}

; Function Attrs: mustprogress nounwind uwtable
define internal void @_ZNSt8optionalIN12_GLOBAL__N_114DarwinPlatformEEC2IS1_TnNSt9enable_ifIX7__and_vISt6__not_ISt7is_sameIS2_NSt9remove_cvINSt16remove_referenceIT_E4typeEE4typeEEES5_IS6_ISt10in_place_tSD_EESt16is_constructibleIS1_JS9_EESt14is_convertibleIS9_S1_EEEbE4typeELb1EEEOS9_(ptr noundef nonnull align 8 dereferenceable(168) %0, ptr noundef nonnull align 8 dereferenceable(160) %1) unnamed_addr #0 align 2 {
  %3 = alloca ptr, align 8
  %4 = alloca ptr, align 8
  store ptr %0, ptr %3, align 8
  store ptr %1, ptr %4, align 8
  %5 = load ptr, ptr %3, align 8
  %6 = load ptr, ptr %4, align 8
  call void @_ZNSt14_Optional_baseIN12_GLOBAL__N_114DarwinPlatformELb0ELb0EEC2IJS1_ETnNSt9enable_ifIX18is_constructible_vIS1_DpT_EEbE4typeELb0EEESt10in_place_tDpOS5_(ptr noundef nonnull align 8 dereferenceable(168) %5, ptr noundef nonnull align 8 dereferenceable(160) %6)
  ret void
}