; Function Attrs: mustprogress nounwind uwtable
define internal fastcc void @_ZNSt8optionalIN12_GLOBAL__N_114DarwinPlatformEEC2IS1_TnNSt9enable_ifIX7__and_vISt6__not_ISt7is_sameIS2_NSt9remove_cvINSt16remove_referenceIT_E4typeEE4typeEEES5_IS6_ISt10in_place_tSD_EESt16is_constructibleIS1_JS9_EESt14is_convertibleIS9_S1_EEEbE4typeELb1EEEOS9_(ptr noundef nonnull align 8 dereferenceable(168) %0, ptr noundef nonnull align 8 dereferenceable(160) %1) unnamed_addr #0 align 2 {
  tail call void @llvm.memcpy.p0.p0.i64(ptr noundef nonnull align 8 dereferenceable(28) %0, ptr noundef nonnull align 8 dereferenceable(28) %1, i64 28, i1 false)
  %3 = getelementptr inbounds nuw i8, ptr %0, i64 32
  %4 = getelementptr inbounds nuw i8, ptr %1, i64 32
  tail call void @_ZNSt7__cxx1112basic_stringIcSt11char_traitsIcESaIcEEC1EOS4_(ptr noundef nonnull align 8 dereferenceable(32) %3, ptr noundef nonnull align 8 dereferenceable(32) %4) #20
  %5 = getelementptr inbounds nuw i8, ptr %0, i64 64
  %6 = getelementptr inbounds nuw i8, ptr %1, i64 64
  tail call void @llvm.memcpy.p0.p0.i64(ptr noundef nonnull align 8 dereferenceable(32) %5, ptr noundef nonnull align 8 dereferenceable(32) %6, i64 32, i1 false)
  %7 = getelementptr inbounds i8, ptr %1, i64 152
  %8 = getelementptr inbounds i8, ptr %0, i64 152
  store i8 0, ptr %8, align 8
  %9 = load i8, ptr %7, align 8
  %10 = trunc i8 %9 to i1
  br i1 %10, label %11, label %_ZNSt14_Optional_baseIN12_GLOBAL__N_114DarwinPlatformELb0ELb0EEC2IJS1_ETnNSt9enable_ifIX18is_constructible_vIS1_DpT_EEbE4typeELb0EEESt10in_place_tDpOS5_.exit

11:                                               ; preds = %2
  %12 = getelementptr inbounds nuw i8, ptr %0, i64 96
  %13 = getelementptr inbounds nuw i8, ptr %1, i64 96
  tail call void @_ZNSt7__cxx1112basic_stringIcSt11char_traitsIcESaIcEEC1EOS4_(ptr noundef nonnull align 8 dereferenceable(32) %12, ptr noundef nonnull align 8 dereferenceable(32) %13) #20
  %14 = getelementptr inbounds i8, ptr %0, i64 128
  %15 = getelementptr inbounds i8, ptr %1, i64 128
  tail call void @llvm.memcpy.p0.p0.i64(ptr noundef nonnull align 8 dereferenceable(24) %14, ptr noundef nonnull align 8 dereferenceable(24) %15, i64 24, i1 false)
  store i8 1, ptr %8, align 8
  br label %_ZNSt14_Optional_baseIN12_GLOBAL__N_114DarwinPlatformELb0ELb0EEC2IJS1_ETnNSt9enable_ifIX18is_constructible_vIS1_DpT_EEbE4typeELb0EEESt10in_place_tDpOS5_.exit

_ZNSt14_Optional_baseIN12_GLOBAL__N_114DarwinPlatformELb0ELb0EEC2IJS1_ETnNSt9enable_ifIX18is_constructible_vIS1_DpT_EEbE4typeELb0EEESt10in_place_tDpOS5_.exit: ; preds = %2, %11
  %16 = getelementptr inbounds nuw i8, ptr %0, i64 160
  store i8 1, ptr %16, align 8
  ret void
}